target datalayout = "e-m:e-p270:32:32-p271:32:32-p272:64:64-i64:64-i128:128-f80:128-n8:16:32:64-S128"
target triple = "x86_64-unknown-linux-gnu"

%"class.google::protobuf::internal::SymbolBase" = type { i8 }
%"class.google::protobuf::Reflection" = type { ptr, %"struct.google::protobuf::internal::ReflectionSchema", ptr, ptr, i32, %"class.absl::lts_20230802::once_flag", ptr }
%"struct.google::protobuf::internal::ReflectionSchema" = type { ptr, ptr, ptr, i32, i32, i32, i32, i32, i32, ptr, i32, i32, i32 }
%"class.absl::lts_20230802::once_flag" = type { %"struct.std::atomic.1" }
%"struct.std::atomic.1" = type { %"struct.std::__atomic_base.2" }
%"struct.std::__atomic_base.2" = type { i32 }
%"class.google::protobuf::FieldDescriptor" = type { %"class.google::protobuf::internal::SymbolBase", i8, i8, i8, i32, ptr, ptr, ptr, ptr, %union.anon.6, %union.anon.7, ptr, ptr, ptr, %union.anon.8 }
%union.anon.6 = type { ptr }
%union.anon.7 = type { ptr }
%union.anon.8 = type { i64 }

; Function Attrs: mustprogress nounwind uwtable
define linkonce_odr hidden noundef ptr @_ZN6google8protobuf8internal23GetConstPointerAtOffsetINS1_12ExtensionSetEEEPKT_PKvj(ptr noundef %message, i32 noundef %offset) #4 comdat {
entry:
  %message.addr = alloca ptr, align 8
  %offset.addr = alloca i32, align 4
  store ptr %message, ptr %message.addr, align 8
  store i32 %offset, ptr %offset.addr, align 4
  %0 = load ptr, ptr %message.addr, align 8
  %1 = load i32, ptr %offset.addr, align 4
  %idx.ext = zext i32 %1 to i64
  %add.ptr = getelementptr inbounds i8, ptr %0, i64 %idx.ext
  ret ptr %add.ptr
}

; Function Attrs: mustprogress uwtable
define linkonce_odr hidden noundef nonnull align 8 dereferenceable(24) ptr @_ZN6google8protobuf8internal19GetConstRefAtOffsetINS1_12ExtensionSetEEERKT_RKNS0_7MessageEj(ptr noundef nonnull align 8 dereferenceable(16) %message, i32 noundef %offset) #5 comdat {
entry:
  %message.addr = alloca ptr, align 8
  %offset.addr = alloca i32, align 4
  store ptr %message, ptr %message.addr, align 8
  store i32 %offset, ptr %offset.addr, align 4
  %0 = load ptr, ptr %message.addr, align 8
  %1 = load i32, ptr %offset.addr, align 4
  %call = call noundef ptr @_ZN6google8protobuf8internal23GetConstPointerAtOffsetINS1_12ExtensionSetEEEPKT_PKvj(ptr noundef %0, i32 noundef %1)
  ret ptr %call
}

; Function Attrs: mustprogress nounwind uwtable
define linkonce_odr hidden noundef i32 @_ZNK6google8protobuf8internal16ReflectionSchema21GetExtensionSetOffsetEv(ptr noundef nonnull align 8 dereferenceable(72) %this) #4 comdat align 2 {
entry:
  %this.addr = alloca ptr, align 8
  store ptr %this, ptr %this.addr, align 8
  %this1 = load ptr, ptr %this.addr, align 8
  %extensions_offset_ = getelementptr inbounds %"struct.google::protobuf::internal::ReflectionSchema", ptr %this1, i32 0, i32 5
  %0 = load i32, ptr %extensions_offset_, align 8
  ret i32 %0
}

; Function Attrs: mustprogress nounwind uwtable
define linkonce_odr hidden noundef i32 @_ZNK6google8protobuf15FieldDescriptor6numberEv(ptr noundef nonnull align 8 dereferenceable(88) %this) #4 comdat align 2 {
entry:
  %this.addr = alloca ptr, align 8
  store ptr %this, ptr %this.addr, align 8
  %this1 = load ptr, ptr %this.addr, align 8
  %number_ = getelementptr inbounds %"class.google::protobuf::FieldDescriptor", ptr %this1, i32 0, i32 4
  %0 = load i32, ptr %number_, align 4
  ret i32 %0
}

; Function Attrs: mustprogress uwtable
define noundef nonnull align 8 dereferenceable(24) ptr @_ZNK6google8protobuf10Reflection15GetExtensionSetERKNS0_7MessageE(ptr noundef nonnull align 8 dereferenceable(112) %this, ptr noundef nonnull align 8 dereferenceable(16) %message) #5 align 2 {
entry:
  %this.addr = alloca ptr, align 8
  %message.addr = alloca ptr, align 8
  store ptr %this, ptr %this.addr, align 8
  store ptr %message, ptr %message.addr, align 8
  %this1 = load ptr, ptr %this.addr, align 8
  %0 = load ptr, ptr %message.addr, align 8
  %schema_ = getelementptr inbounds %"class.google::protobuf::Reflection", ptr %this1, i32 0, i32 1
  %call = call noundef i32 @_ZNK6google8protobuf8internal16ReflectionSchema21GetExtensionSetOffsetEv(ptr noundef nonnull align 8 dereferenceable(72) %schema_)
  %call2 = call noundef nonnull align 8 dereferenceable(24) ptr @_ZN6google8protobuf8internal19GetConstRefAtOffsetINS1_12ExtensionSetEEERKT_RKNS0_7MessageEj(ptr noundef nonnull align 8 dereferenceable(16) %0, i32 noundef %call)
  ret ptr %call2
}

; Function Attrs: mustprogress nounwind uwtable
define linkonce_odr hidden noundef zeroext i1 @_ZNK6google8protobuf15FieldDescriptor12is_extensionEv(ptr noundef nonnull align 8 dereferenceable(88) %this) #4 comdat align 2 {
entry:
  %this.addr = alloca ptr, align 8
  store ptr %this, ptr %this.addr, align 8
  %this1 = load ptr, ptr %this.addr, align 8
  %is_extension_ = getelementptr inbounds %"class.google::protobuf::FieldDescriptor", ptr %this1, i32 0, i32 1
  %bf.load = load i8, ptr %is_extension_, align 1
  %bf.lshr = lshr i8 %bf.load, 3
  %bf.clear = and i8 %bf.lshr, 1
  %bf.cast = trunc i8 %bf.clear to i1
  ret i1 %bf.cast
}

; Function Attrs: mustprogress uwtable
define noundef zeroext i1 @_ZNK6google8protobuf10Reflection15IsLazyExtensionERKNS0_7MessageEPKNS0_15FieldDescriptorE(ptr noundef nonnull align 8 dereferenceable(112) %this, ptr noundef nonnull align 8 dereferenceable(16) %message, ptr noundef %field) #5 align 2 {
entry:
  %this.addr = alloca ptr, align 8
  %message.addr = alloca ptr, align 8
  %field.addr = alloca ptr, align 8
  store ptr %this, ptr %this.addr, align 8
  store ptr %message, ptr %message.addr, align 8
  store ptr %field, ptr %field.addr, align 8
  %this1 = load ptr, ptr %this.addr, align 8
  %0 = load ptr, ptr %field.addr, align 8
  %call = call noundef zeroext i1 @_ZNK6google8protobuf15FieldDescriptor12is_extensionEv(ptr noundef nonnull align 8 dereferenceable(88) %0)
  br i1 %call, label %land.rhs, label %land.end

land.rhs:                                         ; preds = %entry
  %1 = load ptr, ptr %message.addr, align 8
  %call2 = call noundef nonnull align 8 dereferenceable(24) ptr @_ZNK6google8protobuf10Reflection15GetExtensionSetERKNS0_7MessageE(ptr noundef nonnull align 8 dereferenceable(112) %this1, ptr noundef nonnull align 8 dereferenceable(16) %1)
  %2 = load ptr, ptr %field.addr, align 8
  %call3 = call noundef i32 @_ZNK6google8protobuf15FieldDescriptor6numberEv(ptr noundef nonnull align 8 dereferenceable(88) %2)
  %call4 = call noundef zeroext i1 @_ZNK6google8protobuf8internal12ExtensionSet7HasLazyEi(ptr noundef nonnull align 8 dereferenceable(24) %call2, i32 noundef %call3)
  br label %land.end

land.end:                                         ; preds = %land.rhs, %entry
  %3 = phi i1 [ false, %entry ], [ %call4, %land.rhs ]
  ret i1 %3
}