; Function Attrs: mustprogress uwtable
define noundef zeroext i1 @_ZNK6google8protobuf10Reflection15IsLazyExtensionERKNS0_7MessageEPKNS0_15FieldDescriptorE(ptr nocapture noundef nonnull readonly align 8 dereferenceable(112) %this, ptr noundef nonnull align 8 dereferenceable(16) %message, ptr nocapture noundef readonly %field) local_unnamed_addr #4 align 2 {
entry:
  %is_extension_.i = getelementptr inbounds i8, ptr %field, i64 1
  %bf.load.i = load i8, ptr %is_extension_.i, align 1
  %0 = and i8 %bf.load.i, 8
  %bf.cast.i.not = icmp eq i8 %0, 0
  br i1 %bf.cast.i.not, label %land.end, label %land.rhs

land.rhs:                                         ; preds = %entry
  %extensions_offset_.i.i = getelementptr inbounds i8, ptr %this, i64 40
  %1 = load i32, ptr %extensions_offset_.i.i, align 8
  %idx.ext.i.i.i = zext i32 %1 to i64
  %add.ptr.i.i.i = getelementptr inbounds i8, ptr %message, i64 %idx.ext.i.i.i
  %number_.i = getelementptr inbounds i8, ptr %field, i64 4
  %2 = load i32, ptr %number_.i, align 4
  %call4 = tail call noundef zeroext i1 @_ZNK6google8protobuf8internal12ExtensionSet7HasLazyEi(ptr noundef nonnull align 8 dereferenceable(24) %add.ptr.i.i.i, i32 noundef %2)
  br label %land.end

land.end:                                         ; preds = %land.rhs, %entry
  %3 = phi i1 [ false, %entry ], [ %call4, %land.rhs ]
  ret i1 %3
}